target datalayout = "e-m:e-p270:32:32-p271:32:32-p272:64:64-i64:64-i128:128-f80:128-n8:16:32:64-S128"
target triple = "x86_64-pc-linux-gnu"

%"class.std::_Function_base" = type { %"union.std::_Any_data", ptr }
%"union.std::_Any_data" = type { %"union.std::_Nocopy_types" }
%"union.std::_Nocopy_types" = type { { i64, i64 } }
%"class.std::function.248" = type { %"class.std::_Function_base", ptr }

; Function Attrs: mustprogress nounwind uwtable
define linkonce_odr hidden noundef ptr @_ZNSt9_Any_data9_M_accessEv(ptr noundef nonnull align 8 dereferenceable(16) %0) #1 comdat align 2 {
  %2 = alloca ptr, align 8
  store ptr %0, ptr %2, align 8
  %3 = load ptr, ptr %2, align 8
  %4 = getelementptr inbounds [16 x i8], ptr %3, i64 0, i64 0
  ret ptr %4
}

; Function Attrs: mustprogress nounwind uwtable
define internal noundef nonnull align 8 dereferenceable(8) ptr @"_ZNSt9_Any_data9_M_accessIPZN4llvm14CombinerHelper24tryFoldSelectOfConstantsEPNS1_7GSelectERSt8functionIFvRNS1_16MachineIRBuilderEEEE3$_8EERT_v"(ptr noundef nonnull align 8 dereferenceable(16) %0) #1 align 2 {
  %2 = alloca ptr, align 8
  store ptr %0, ptr %2, align 8
  %3 = load ptr, ptr %2, align 8
  %4 = call noundef ptr @_ZNSt9_Any_data9_M_accessEv(ptr noundef nonnull align 8 dereferenceable(16) %3) #2
  ret ptr %4
}

; Function Attrs: mustprogress nounwind uwtable
define internal void @"_ZNSt14_Function_base13_Base_managerIZN4llvm14CombinerHelper24tryFoldSelectOfConstantsEPNS1_7GSelectERSt8functionIFvRNS1_16MachineIRBuilderEEEE3$_8E9_M_createISB_EEvRSt9_Any_dataOT_St17integral_constantIbLb0EE"(ptr noundef nonnull align 8 dereferenceable(16) %0, ptr noundef nonnull align 8 dereferenceable(52) %1) #1 align 2 {
  %3 = alloca ptr, align 8
  %4 = alloca ptr, align 8
  store ptr %0, ptr %3, align 8
  store ptr %1, ptr %4, align 8
  %5 = call noalias noundef nonnull ptr @_Znwm(i64 noundef 56) #19
  %6 = load ptr, ptr %4, align 8
  call void @llvm.memcpy.p0.p0.i64(ptr align 16 %5, ptr align 8 %6, i64 56, i1 false)
  %7 = load ptr, ptr %3, align 8
  %8 = call noundef nonnull align 8 dereferenceable(8) ptr @"_ZNSt9_Any_data9_M_accessIPZN4llvm14CombinerHelper24tryFoldSelectOfConstantsEPNS1_7GSelectERSt8functionIFvRNS1_16MachineIRBuilderEEEE3$_8EERT_v"(ptr noundef nonnull align 8 dereferenceable(16) %7) #2
  store ptr %5, ptr %8, align 8
  ret void
}

; Function Attrs: mustprogress nounwind uwtable
define linkonce_odr hidden void @_ZNSt14_Function_baseD2Ev(ptr noundef nonnull align 8 dereferenceable(24) %0) unnamed_addr #1 comdat align 2 {
  %2 = alloca ptr, align 8
  store ptr %0, ptr %2, align 8
  %3 = load ptr, ptr %2, align 8
  %4 = getelementptr inbounds nuw %"class.std::_Function_base", ptr %3, i32 0, i32 1
  %5 = load ptr, ptr %4, align 8
  %6 = icmp ne ptr %5, null
  br i1 %6, label %7, label %13

7:                                                ; preds = %1
  %8 = getelementptr inbounds nuw %"class.std::_Function_base", ptr %3, i32 0, i32 1
  %9 = load ptr, ptr %8, align 8
  %10 = getelementptr inbounds nuw %"class.std::_Function_base", ptr %3, i32 0, i32 0
  %11 = getelementptr inbounds nuw %"class.std::_Function_base", ptr %3, i32 0, i32 0
  %12 = call noundef zeroext i1 %9(ptr noundef nonnull align 8 dereferenceable(16) %10, ptr noundef nonnull align 8 dereferenceable(16) %11, i32 noundef 3)
  br label %13

13:                                               ; preds = %7, %1
  ret void
}

; Function Attrs: mustprogress nounwind uwtable
define linkonce_odr void @_ZSt4swapIPFvRKSt9_Any_dataRN4llvm16MachineIRBuilderEEENSt9enable_ifIXsr6__and_ISt6__not_ISt15__is_tuple_likeIT_EESt21is_move_constructibleISB_ESt18is_move_assignableISB_EEE5valueEvE4typeERSB_SK_(ptr noundef nonnull align 8 dereferenceable(8) %0, ptr noundef nonnull align 8 dereferenceable(8) %1) #1 comdat {
  %3 = alloca ptr, align 8
  %4 = alloca ptr, align 8
  %5 = alloca ptr, align 8
  store ptr %0, ptr %3, align 8
  store ptr %1, ptr %4, align 8
  %6 = load ptr, ptr %3, align 8
  %7 = load ptr, ptr %6, align 8
  store ptr %7, ptr %5, align 8
  %8 = load ptr, ptr %4, align 8
  %9 = load ptr, ptr %8, align 8
  %10 = load ptr, ptr %3, align 8
  store ptr %9, ptr %10, align 8
  %11 = load ptr, ptr %5, align 8
  %12 = load ptr, ptr %4, align 8
  store ptr %11, ptr %12, align 8
  ret void
}

; Function Attrs: mustprogress nounwind uwtable
define linkonce_odr void @_ZSt4swapIPFbRSt9_Any_dataRKS0_St18_Manager_operationEENSt9enable_ifIXsr6__and_ISt6__not_ISt15__is_tuple_likeIT_EESt21is_move_constructibleISA_ESt18is_move_assignableISA_EEE5valueEvE4typeERSA_SJ_(ptr noundef nonnull align 8 dereferenceable(8) %0, ptr noundef nonnull align 8 dereferenceable(8) %1) #1 comdat {
  %3 = alloca ptr, align 8
  %4 = alloca ptr, align 8
  %5 = alloca ptr, align 8
  store ptr %0, ptr %3, align 8
  store ptr %1, ptr %4, align 8
  %6 = load ptr, ptr %3, align 8
  %7 = load ptr, ptr %6, align 8
  store ptr %7, ptr %5, align 8
  %8 = load ptr, ptr %4, align 8
  %9 = load ptr, ptr %8, align 8
  %10 = load ptr, ptr %3, align 8
  store ptr %9, ptr %10, align 8
  %11 = load ptr, ptr %5, align 8
  %12 = load ptr, ptr %4, align 8
  store ptr %11, ptr %12, align 8
  ret void
}

; Function Attrs: mustprogress nounwind uwtable
define linkonce_odr void @_ZSt4swapISt9_Any_dataENSt9enable_ifIXsr6__and_ISt6__not_ISt15__is_tuple_likeIT_EESt21is_move_constructibleIS4_ESt18is_move_assignableIS4_EEE5valueEvE4typeERS4_SD_(ptr noundef nonnull align 8 dereferenceable(16) %0, ptr noundef nonnull align 8 dereferenceable(16) %1) #1 comdat {
  %3 = alloca ptr, align 8
  %4 = alloca ptr, align 8
  %5 = alloca %"union.std::_Any_data", align 8
  store ptr %0, ptr %3, align 8
  store ptr %1, ptr %4, align 8
  %6 = load ptr, ptr %3, align 8
  call void @llvm.memcpy.p0.p0.i64(ptr align 8 %5, ptr align 8 %6, i64 16, i1 false)
  %7 = load ptr, ptr %4, align 8
  %8 = load ptr, ptr %3, align 8
  call void @llvm.memcpy.p0.p0.i64(ptr align 8 %8, ptr align 8 %7, i64 16, i1 false)
  %9 = load ptr, ptr %4, align 8
  call void @llvm.memcpy.p0.p0.i64(ptr align 8 %9, ptr align 8 %5, i64 16, i1 false)
  ret void
}

; Function Attrs: mustprogress nounwind uwtable
define internal void @"_ZNSt14_Function_base13_Base_managerIZN4llvm14CombinerHelper24tryFoldSelectOfConstantsEPNS1_7GSelectERSt8functionIFvRNS1_16MachineIRBuilderEEEE3$_8E15_M_init_functorISB_EEvRSt9_Any_dataOT_"(ptr noundef nonnull align 8 dereferenceable(16) %0, ptr noundef nonnull align 8 dereferenceable(52) %1) #1 align 2 {
  %3 = alloca ptr, align 8
  %4 = alloca ptr, align 8
  store ptr %0, ptr %3, align 8
  store ptr %1, ptr %4, align 8
  %5 = load ptr, ptr %3, align 8
  %6 = load ptr, ptr %4, align 8
  call void @"_ZNSt14_Function_base13_Base_managerIZN4llvm14CombinerHelper24tryFoldSelectOfConstantsEPNS1_7GSelectERSt8functionIFvRNS1_16MachineIRBuilderEEEE3$_8E9_M_createISB_EEvRSt9_Any_dataOT_St17integral_constantIbLb0EE"(ptr noundef nonnull align 8 dereferenceable(16) %5, ptr noundef nonnull align 8 dereferenceable(52) %6)
  ret void
}

; Function Attrs: mustprogress nounwind uwtable
define internal noundef zeroext i1 @"_ZNSt14_Function_base13_Base_managerIZN4llvm14CombinerHelper24tryFoldSelectOfConstantsEPNS1_7GSelectERSt8functionIFvRNS1_16MachineIRBuilderEEEE3$_8E21_M_not_empty_functionISB_EEbRKT_"(ptr noundef nonnull align 8 dereferenceable(52) %0) #1 align 2 {
  %2 = alloca ptr, align 8
  store ptr %0, ptr %2, align 8
  ret i1 true
}

; Function Attrs: mustprogress nounwind uwtable
define linkonce_odr hidden void @_ZNSt14_Function_baseC2Ev(ptr noundef nonnull align 8 dereferenceable(24) %0) unnamed_addr #1 comdat align 2 {
  %2 = alloca ptr, align 8
  store ptr %0, ptr %2, align 8
  %3 = load ptr, ptr %2, align 8
  %4 = getelementptr inbounds nuw %"class.std::_Function_base", ptr %3, i32 0, i32 0
  store ptr null, ptr %4, align 8
  %5 = getelementptr inbounds nuw %"class.std::_Function_base", ptr %3, i32 0, i32 1
  store ptr null, ptr %5, align 8
  ret void
}

; Function Attrs: mustprogress nounwind uwtable
define linkonce_odr hidden void @_ZNSt8functionIFvRN4llvm16MachineIRBuilderEEED2Ev(ptr noundef nonnull align 8 dereferenceable(32) %0) unnamed_addr #1 comdat align 2 {
  %2 = alloca ptr, align 8
  store ptr %0, ptr %2, align 8
  %3 = load ptr, ptr %2, align 8
  call void @_ZNSt14_Function_baseD2Ev(ptr noundef nonnull align 8 dereferenceable(24) %3) #2
  ret void
}

; Function Attrs: mustprogress nounwind uwtable
define linkonce_odr hidden void @_ZNSt8functionIFvRN4llvm16MachineIRBuilderEEE4swapERS4_(ptr noundef nonnull align 8 dereferenceable(32) %0, ptr noundef nonnull align 8 dereferenceable(32) %1) #1 comdat align 2 {
  %3 = alloca ptr, align 8
  %4 = alloca ptr, align 8
  store ptr %0, ptr %3, align 8
  store ptr %1, ptr %4, align 8
  %5 = load ptr, ptr %3, align 8
  %6 = getelementptr inbounds nuw %"class.std::_Function_base", ptr %5, i32 0, i32 0
  %7 = load ptr, ptr %4, align 8
  %8 = getelementptr inbounds nuw %"class.std::_Function_base", ptr %7, i32 0, i32 0
  call void @_ZSt4swapISt9_Any_dataENSt9enable_ifIXsr6__and_ISt6__not_ISt15__is_tuple_likeIT_EESt21is_move_constructibleIS4_ESt18is_move_assignableIS4_EEE5valueEvE4typeERS4_SD_(ptr noundef nonnull align 8 dereferenceable(16) %6, ptr noundef nonnull align 8 dereferenceable(16) %8) #2
  %9 = getelementptr inbounds nuw %"class.std::_Function_base", ptr %5, i32 0, i32 1
  %10 = load ptr, ptr %4, align 8
  %11 = getelementptr inbounds nuw %"class.std::_Function_base", ptr %10, i32 0, i32 1
  call void @_ZSt4swapIPFbRSt9_Any_dataRKS0_St18_Manager_operationEENSt9enable_ifIXsr6__and_ISt6__not_ISt15__is_tuple_likeIT_EESt21is_move_constructibleISA_ESt18is_move_assignableISA_EEE5valueEvE4typeERSA_SJ_(ptr noundef nonnull align 8 dereferenceable(8) %9, ptr noundef nonnull align 8 dereferenceable(8) %11) #2
  %12 = getelementptr inbounds nuw %"class.std::function.248", ptr %5, i32 0, i32 1
  %13 = load ptr, ptr %4, align 8
  %14 = getelementptr inbounds nuw %"class.std::function.248", ptr %13, i32 0, i32 1
  call void @_ZSt4swapIPFvRKSt9_Any_dataRN4llvm16MachineIRBuilderEEENSt9enable_ifIXsr6__and_ISt6__not_ISt15__is_tuple_likeIT_EESt21is_move_constructibleISB_ESt18is_move_assignableISB_EEE5valueEvE4typeERSB_SK_(ptr noundef nonnull align 8 dereferenceable(8) %12, ptr noundef nonnull align 8 dereferenceable(8) %14) #2
  ret void
}

; Function Attrs: mustprogress nounwind uwtable
define internal void @"_ZNSt8functionIFvRN4llvm16MachineIRBuilderEEEC2IZNS0_14CombinerHelper24tryFoldSelectOfConstantsEPNS0_7GSelectERS4_E3$_8vEEOT_"(ptr noundef nonnull align 8 dereferenceable(32) %0, ptr noundef nonnull align 8 dereferenceable(52) %1) unnamed_addr #1 align 2 {
  %3 = alloca ptr, align 8
  %4 = alloca ptr, align 8
  store ptr %0, ptr %3, align 8
  store ptr %1, ptr %4, align 8
  %5 = load ptr, ptr %3, align 8
  %6 = getelementptr inbounds i8, ptr %5, i64 0
  call void @llvm.memset.p0.i64(ptr align 8 %6, i8 0, i64 24, i1 false)
  call void @_ZNSt14_Function_baseC2Ev(ptr noundef nonnull align 8 dereferenceable(24) %5) #2
  %7 = getelementptr inbounds nuw %"class.std::function.248", ptr %5, i32 0, i32 1
  store ptr null, ptr %7, align 8
  %8 = load ptr, ptr %4, align 8
  %9 = call noundef zeroext i1 @"_ZNSt14_Function_base13_Base_managerIZN4llvm14CombinerHelper24tryFoldSelectOfConstantsEPNS1_7GSelectERSt8functionIFvRNS1_16MachineIRBuilderEEEE3$_8E21_M_not_empty_functionISB_EEbRKT_"(ptr noundef nonnull align 8 dereferenceable(52) %8) #2
  br i1 %9, label %10, label %15

10:                                               ; preds = %2
  %11 = getelementptr inbounds nuw %"class.std::_Function_base", ptr %5, i32 0, i32 0
  %12 = load ptr, ptr %4, align 8
  call void @"_ZNSt14_Function_base13_Base_managerIZN4llvm14CombinerHelper24tryFoldSelectOfConstantsEPNS1_7GSelectERSt8functionIFvRNS1_16MachineIRBuilderEEEE3$_8E15_M_init_functorISB_EEvRSt9_Any_dataOT_"(ptr noundef nonnull align 8 dereferenceable(16) %11, ptr noundef nonnull align 8 dereferenceable(52) %12)
  %13 = getelementptr inbounds nuw %"class.std::function.248", ptr %5, i32 0, i32 1
  store ptr @"_ZNSt17_Function_handlerIFvRN4llvm16MachineIRBuilderEEZNS0_14CombinerHelper24tryFoldSelectOfConstantsEPNS0_7GSelectERSt8functionIS3_EE3$_8E9_M_invokeERKSt9_Any_dataS2_", ptr %13, align 8
  %14 = getelementptr inbounds nuw %"class.std::_Function_base", ptr %5, i32 0, i32 1
  store ptr @"_ZNSt17_Function_handlerIFvRN4llvm16MachineIRBuilderEEZNS0_14CombinerHelper24tryFoldSelectOfConstantsEPNS0_7GSelectERSt8functionIS3_EE3$_8E10_M_managerERSt9_Any_dataRKSC_St18_Manager_operation", ptr %14, align 8
  br label %15

15:                                               ; preds = %10, %2
  ret void
}

; Function Attrs: mustprogress nounwind uwtable
define internal noundef nonnull align 8 dereferenceable(32) ptr @"_ZNSt8functionIFvRN4llvm16MachineIRBuilderEEEaSIZNS0_14CombinerHelper24tryFoldSelectOfConstantsEPNS0_7GSelectERS4_E3$_8EENSt9enable_ifIXsr9_CallableIT_EE5valueES9_E4typeEOSC_"(ptr noundef nonnull align 8 dereferenceable(32) %0, ptr noundef nonnull align 8 dereferenceable(52) %1) #1 align 2 {
  %3 = alloca ptr, align 8
  %4 = alloca ptr, align 8
  %5 = alloca %"class.std::function.248", align 8
  store ptr %0, ptr %3, align 8
  store ptr %1, ptr %4, align 8
  %6 = load ptr, ptr %3, align 8
  %7 = load ptr, ptr %4, align 8
  call void @"_ZNSt8functionIFvRN4llvm16MachineIRBuilderEEEC2IZNS0_14CombinerHelper24tryFoldSelectOfConstantsEPNS0_7GSelectERS4_E3$_8vEEOT_"(ptr noundef nonnull align 8 dereferenceable(32) %5, ptr noundef nonnull align 8 dereferenceable(52) %7)
  call void @_ZNSt8functionIFvRN4llvm16MachineIRBuilderEEE4swapERS4_(ptr noundef nonnull align 8 dereferenceable(32) %5, ptr noundef nonnull align 8 dereferenceable(32) %6) #2
  call void @_ZNSt8functionIFvRN4llvm16MachineIRBuilderEEED2Ev(ptr noundef nonnull align 8 dereferenceable(32) %5) #2
  ret ptr %6
}